; Function Attrs: mustprogress nounwind uwtable
define hidden void @_ZN2cv11bioinspired12RetinaFilterD2Ev(ptr noundef nonnull align 8 dereferenceable(1217) %0) unnamed_addr #7 align 2 {
  %2 = getelementptr inbounds nuw i8, ptr %0, i64 1200
  %3 = load ptr, ptr %2, align 8, !tbaa !11
  %.not = icmp eq ptr %3, null
  br i1 %.not, label %8, label %4

4:                                                ; preds = %1
  %5 = load ptr, ptr %3, align 8, !tbaa !26
  %6 = getelementptr inbounds nuw i8, ptr %5, i64 8
  %7 = load ptr, ptr %6, align 8
  tail call void %7(ptr noundef nonnull align 8 dereferenceable(301) %3) #21
  br label %8

8:                                                ; preds = %4, %1
  %9 = getelementptr inbounds nuw i8, ptr %0, i64 848
  tail call void @_ZN2cv11bioinspired11RetinaColorD1Ev(ptr noundef nonnull align 8 dereferenceable(349) %9) #21
  %10 = getelementptr inbounds nuw i8, ptr %0, i64 520
  tail call void @_ZN2cv11bioinspired17MagnoRetinaFilterD1Ev(ptr noundef nonnull align 8 dereferenceable(324) %10) #21
  %11 = getelementptr inbounds nuw i8, ptr %0, i64 216
  tail call void @_ZN2cv11bioinspired17ParvoRetinaFilterD1Ev(ptr noundef nonnull align 8 dereferenceable(304) %11) #21
  %12 = getelementptr inbounds nuw i8, ptr %0, i64 48
  tail call void @_ZN2cv11bioinspired17BasicRetinaFilterD1Ev(ptr noundef nonnull align 8 dereferenceable(168) %12) #21
  %13 = getelementptr inbounds nuw i8, ptr %0, i64 40
  %14 = load ptr, ptr %13, align 8, !tbaa !10
  tail call void @_ZdlPv(ptr noundef %14) #21
  %15 = getelementptr inbounds nuw i8, ptr %0, i64 24
  %16 = load ptr, ptr %15, align 8, !tbaa !10
  tail call void @_ZdlPv(ptr noundef %16) #21
  ret void
}